; Function Attrs: mustprogress uwtable
define void @_ZN13sentencepiece10normalizer7Builder11BuildNFCMapEPSt3mapISt6vectorIjSaIjEES5_St4lessIS5_ESaISt4pairIKS5_S5_EEE(ptr dead_on_unwind noalias writable sret(%"class.sentencepiece::util::Status") align 8 %0, ptr nocapture noundef readnone %1) local_unnamed_addr #3 align 2 personality ptr @__gxx_personality_v0 {
  %3 = alloca %"class.sentencepiece::error::Die", align 1
  %4 = tail call noundef i32 @_ZN13sentencepiece7logging14GetMinLogLevelEv()
  %5 = icmp slt i32 %4, 3
  br i1 %5, label %6, label %.critedge

6:                                                ; preds = %2
  store i8 0, ptr %3, align 1
  %7 = invoke noundef nonnull align 8 dereferenceable(8) ptr @_ZStlsISt11char_traitsIcEERSt13basic_ostreamIcT_ES5_PKc(ptr noundef nonnull align 8 dereferenceable(8) @_ZSt4cerr, ptr noundef nonnull getelementptr inbounds (i8, ptr @.str, i64 4))
          to label %8 unwind label %26

8:                                                ; preds = %6
  %9 = invoke noundef nonnull align 8 dereferenceable(8) ptr @_ZStlsISt11char_traitsIcEERSt13basic_ostreamIcT_ES5_PKc(ptr noundef nonnull align 8 dereferenceable(8) %7, ptr noundef nonnull @.str.1)
          to label %10 unwind label %26

10:                                               ; preds = %8
  %11 = invoke noundef nonnull align 8 dereferenceable(8) ptr @_ZNSolsEi(ptr noundef nonnull align 8 dereferenceable(8) %9, i32 noundef 371)
          to label %12 unwind label %26

12:                                               ; preds = %10
  %13 = invoke noundef nonnull align 8 dereferenceable(8) ptr @_ZStlsISt11char_traitsIcEERSt13basic_ostreamIcT_ES5_PKc(ptr noundef nonnull align 8 dereferenceable(8) %11, ptr noundef nonnull @.str.6)
          to label %14 unwind label %26

14:                                               ; preds = %12
  %15 = invoke noundef nonnull align 8 dereferenceable(8) ptr @_ZStlsISt11char_traitsIcEERSt13basic_ostreamIcT_ES5_PKc(ptr noundef nonnull align 8 dereferenceable(8) %13, ptr noundef nonnull @.str.7)
          to label %16 unwind label %26

16:                                               ; preds = %14
  %17 = invoke noundef nonnull align 8 dereferenceable(8) ptr @_ZStlsISt11char_traitsIcEERSt13basic_ostreamIcT_ES5_PKc(ptr noundef nonnull align 8 dereferenceable(8) %15, ptr noundef nonnull @.str.22)
          to label %18 unwind label %26

18:                                               ; preds = %16
  %19 = invoke noundef nonnull align 8 dereferenceable(8) ptr @_ZStlsISt11char_traitsIcEERSt13basic_ostreamIcT_ES5_PKc(ptr noundef nonnull align 8 dereferenceable(8) %17, ptr noundef nonnull @.str.6)
          to label %20 unwind label %26

20:                                               ; preds = %18
  %21 = invoke noundef nonnull align 8 dereferenceable(8) ptr @_ZSt16__ostream_insertIcSt11char_traitsIcEERSt13basic_ostreamIT_T0_ES6_PKS3_l(ptr noundef nonnull align 8 dereferenceable(8) %19, ptr noundef nonnull @.str.47, i64 noundef 69)
          to label %_ZStlsIcSt11char_traitsIcEERSt13basic_ostreamIT_T0_ES6_St17basic_string_viewIS3_S4_E.exit unwind label %26

_ZStlsIcSt11char_traitsIcEERSt13basic_ostreamIT_T0_ES6_St17basic_string_viewIS3_S4_E.exit: ; preds = %20
  %22 = invoke noundef nonnull align 8 dereferenceable(8) ptr @_ZNSolsEPFRSoS_E(ptr noundef nonnull align 8 dereferenceable(8) @_ZSt4cerr, ptr noundef nonnull @_ZSt4endlIcSt11char_traitsIcEERSt13basic_ostreamIT_T0_ES6_)
          to label %.critedge unwind label %23

23:                                               ; preds = %_ZStlsIcSt11char_traitsIcEERSt13basic_ostreamIT_T0_ES6_St17basic_string_viewIS3_S4_E.exit
  %24 = landingpad { ptr, i32 }
          catch ptr null
  %25 = extractvalue { ptr, i32 } %24, 0
  tail call void @__clang_call_terminate(ptr %25) #21
  unreachable

.critedge:                                        ; preds = %_ZStlsIcSt11char_traitsIcEERSt13basic_ostreamIT_T0_ES6_St17basic_string_viewIS3_S4_E.exit, %2
  tail call void @_ZN13sentencepiece4util6StatusC1Ev(ptr noundef nonnull align 8 dereferenceable(8) %0)
  ret void

26:                                               ; preds = %20, %18, %16, %14, %12, %10, %8, %6
  %27 = landingpad { ptr, i32 }
          cleanup
  call void @_ZN13sentencepiece5error3DieD2Ev(ptr noundef nonnull align 1 dereferenceable(1) %3) #20
  resume { ptr, i32 } %27
}